; Function Attrs: mustprogress nounwind uwtable
define hidden void @_ZN5Label12add_patch_atEP10CodeBufferiPKci(ptr nocapture noundef nonnull align 8 dereferenceable(33) %0, ptr noundef %1, i32 noundef %2, ptr nocapture noundef readnone %3, i32 noundef %4) local_unnamed_addr #0 align 2 {
  %6 = getelementptr inbounds i8, ptr %1, i64 161
  %7 = load i8, ptr %6, align 1
  %8 = trunc i8 %7 to i1
  br i1 %8, label %48, label %9

9:                                                ; preds = %5
  %10 = getelementptr inbounds i8, ptr %0, i64 20
  %11 = load i32, ptr %10, align 4
  %12 = icmp slt i32 %11, 4
  br i1 %12, label %13, label %17

13:                                               ; preds = %9
  %14 = getelementptr inbounds i8, ptr %0, i64 4
  %15 = sext i32 %11 to i64
  %16 = getelementptr inbounds [4 x i32], ptr %14, i64 0, i64 %15
  br label %45

17:                                               ; preds = %9
  %18 = getelementptr inbounds i8, ptr %0, i64 24
  %19 = load ptr, ptr %18, align 8
  %20 = icmp eq ptr %19, null
  br i1 %20, label %21, label %23

21:                                               ; preds = %17
  %22 = tail call noundef ptr @_ZN10CodeBuffer21create_patch_overflowEv(ptr noundef nonnull align 8 dereferenceable(448) %1) #10
  store ptr %22, ptr %18, align 8
  br label %23

23:                                               ; preds = %21, %17
  %24 = phi ptr [ %22, %21 ], [ %19, %17 ]
  %25 = load i32, ptr %24, align 8
  %26 = getelementptr inbounds i8, ptr %24, i64 4
  %27 = load i32, ptr %26, align 4
  %28 = icmp eq i32 %25, %27
  br i1 %28, label %29, label %_ZN26GrowableArrayWithAllocatorIi13GrowableArrayIiEE4pushERKi.exit

29:                                               ; preds = %23
  %30 = add nsw i32 %25, 1
  %31 = icmp sgt i32 %25, -1
  %32 = xor i32 %25, -2147483648
  %33 = and i32 %32, %30
  %34 = icmp eq i32 %33, 0
  %35 = and i1 %31, %34
  %36 = tail call range(i32 0, 33) i32 @llvm.ctlz.i32(i32 %30, i1 true)
  %37 = sub nuw nsw i32 32, %36
  %38 = shl nuw i32 1, %37
  %.0.i.i.i.i.i = select i1 %35, i32 %30, i32 %38
  tail call void @_ZN26GrowableArrayWithAllocatorIi13GrowableArrayIiEE9expand_toEi(ptr noundef nonnull align 8 dereferenceable(16) %24, i32 noundef %.0.i.i.i.i.i)
  %.pre.i.i = load i32, ptr %24, align 8
  br label %_ZN26GrowableArrayWithAllocatorIi13GrowableArrayIiEE4pushERKi.exit

_ZN26GrowableArrayWithAllocatorIi13GrowableArrayIiEE4pushERKi.exit: ; preds = %23, %29
  %39 = phi i32 [ %.pre.i.i, %29 ], [ %25, %23 ]
  %40 = add nsw i32 %39, 1
  store i32 %40, ptr %24, align 8
  %41 = getelementptr inbounds i8, ptr %24, i64 8
  %42 = load ptr, ptr %41, align 8
  %43 = sext i32 %39 to i64
  %44 = getelementptr inbounds i32, ptr %42, i64 %43
  br label %45

45:                                               ; preds = %_ZN26GrowableArrayWithAllocatorIi13GrowableArrayIiEE4pushERKi.exit, %13
  %.sink = phi ptr [ %44, %_ZN26GrowableArrayWithAllocatorIi13GrowableArrayIiEE4pushERKi.exit ], [ %16, %13 ]
  store i32 %2, ptr %.sink, align 4
  %46 = load i32, ptr %10, align 4
  %47 = add nsw i32 %46, 1
  store i32 %47, ptr %10, align 4
  br label %48

48:                                               ; preds = %5, %45
  ret void
}